; ModuleID = 'source-C-CXX/53/1609.c'
source_filename = "source-C-CXX/53/1609.c"
target datalayout = "e-m:e-p270:32:32-p271:32:32-p272:64:64-i64:64-f80:128-n8:16:32:64-S128"
target triple = "x86_64-pc-linux-gnu"

@N = dso_local global i32 0, align 4
@K = dso_local global i32 0, align 4
@.str = private unnamed_addr constant [5 x i8] c"%d%d\00", align 1
@.str.1 = private unnamed_addr constant [3 x i8] c"%d\00", align 1

; Function Attrs: nofree nounwind sspstrong uwtable
define dso_local i32 @dfs(i32 %0) local_unnamed_addr #0 {
  %2 = icmp eq i32 %0, 0
  br i1 %2, label %3, label %6

3:                                                ; preds = %1
  %4 = load i32, i32* @N, align 4, !tbaa !5
  %5 = add nsw i32 %4, -1
  br label %31

6:                                                ; preds = %1
  %7 = add nsw i32 %0, -1
  %8 = tail call i32 @dfs(i32 %7)
  %9 = load i32, i32* @N, align 4, !tbaa !5
  %10 = add nsw i32 %9, -1
  %11 = sdiv i32 %8, %10
  %12 = mul nsw i32 %11, %9
  %13 = load i32, i32* @K, align 4, !tbaa !5
  %14 = add nsw i32 %12, %13
  %15 = icmp eq i32 %9, %0
  br i1 %15, label %31, label %16

16:                                               ; preds = %6
  %17 = sitofp i32 %0 to double
  %18 = srem i32 %14, %10
  %19 = icmp eq i32 %18, 0
  br i1 %19, label %31, label %20

20:                                               ; preds = %16, %20
  %21 = phi i32 [ %27, %20 ], [ %9, %16 ]
  %22 = phi i32 [ %26, %20 ], [ %14, %16 ]
  %23 = sitofp i32 %21 to double
  %24 = tail call double @pow(double %23, double %17) #3
  %25 = fptosi double %24 to i32
  %26 = add nsw i32 %22, %25
  %27 = load i32, i32* @N, align 4, !tbaa !5
  %28 = add nsw i32 %27, -1
  %29 = srem i32 %26, %28
  %30 = icmp eq i32 %29, 0
  br i1 %30, label %31, label %20, !llvm.loop !9

31:                                               ; preds = %20, %16, %6, %3
  %32 = phi i32 [ %5, %3 ], [ %14, %6 ], [ %14, %16 ], [ %26, %20 ]
  ret i32 %32
}

; Function Attrs: mustprogress nofree nounwind willreturn
declare double @pow(double, double) local_unnamed_addr #1

; Function Attrs: nofree nounwind sspstrong uwtable
define dso_local i32 @main() local_unnamed_addr #0 {
  %1 = tail call i32 (i8*, ...) @__isoc99_scanf(i8* getelementptr inbounds ([5 x i8], [5 x i8]* @.str, i64 0, i64 0), i32* nonnull @N, i32* nonnull @K)
  %2 = load i32, i32* @N, align 4, !tbaa !5
  %3 = tail call i32 @dfs(i32 %2)
  %4 = tail call i32 (i8*, ...) @printf(i8* nonnull dereferenceable(1) getelementptr inbounds ([3 x i8], [3 x i8]* @.str.1, i64 0, i64 0), i32 %3)
  ret i32 0
}

; Function Attrs: nofree nounwind
declare noundef i32 @__isoc99_scanf(i8* nocapture noundef readonly, ...) local_unnamed_addr #2

; Function Attrs: nofree nounwind
declare noundef i32 @printf(i8* nocapture noundef readonly, ...) local_unnamed_addr #2


!llvm.module.flags = !{!0, !1, !2, !3}
!llvm.ident = !{!4}

!0 = !{i32 1, !"wchar_size", i32 4}
!1 = !{i32 7, !"PIC Level", i32 2}
!2 = !{i32 7, !"PIE Level", i32 2}
!3 = !{i32 7, !"uwtable", i32 1}
!4 = !{!"clang version 13.0.0"}
!5 = !{!6, !6, i64 0}
!6 = !{!"int", !7, i64 0}
!7 = !{!"omnipotent char", !8, i64 0}
!8 = !{!"Simple C/C++ TBAA"}
!9 = distinct !{!9, !10}
!10 = !{!"llvm.loop.mustprogress"}
